; ModuleID = 'source-C-CXX/28/172.c'
source_filename = "source-C-CXX/28/172.c"
target datalayout = "e-m:e-p270:32:32-p271:32:32-p272:64:64-i64:64-f80:128-n8:16:32:64-S128"
target triple = "x86_64-pc-linux-gnu"

@.str = private unnamed_addr constant [3 x i8] c"%d\00", align 1
@.str.1 = private unnamed_addr constant [7 x i8] c"%.3lf\0A\00", align 1

; Function Attrs: nofree nounwind sspstrong uwtable
define dso_local i32 @main() local_unnamed_addr #0 {
  %1 = alloca i32, align 4
  %2 = alloca [100 x i32], align 16
  %3 = alloca [100 x i32], align 16
  %4 = bitcast i32* %1 to i8*
  call void @llvm.lifetime.start.p0i8(i64 4, i8* nonnull %4) #3
  %5 = bitcast [100 x i32]* %2 to i8*
  call void @llvm.lifetime.start.p0i8(i64 400, i8* nonnull %5) #3
  %6 = bitcast [100 x i32]* %3 to i8*
  call void @llvm.lifetime.start.p0i8(i64 400, i8* nonnull %6) #3
  %7 = call i32 (i8*, ...) @__isoc99_scanf(i8* getelementptr inbounds ([3 x i8], [3 x i8]* @.str, i64 0, i64 0), i32* nonnull %1)
  %8 = load i32, i32* %1, align 4, !tbaa !5
  %9 = icmp sgt i32 %8, 0
  br i1 %9, label %10, label %83

10:                                               ; preds = %0, %10
  %11 = phi i64 [ %14, %10 ], [ 0, %0 ]
  %12 = getelementptr inbounds [100 x i32], [100 x i32]* %2, i64 0, i64 %11
  %13 = call i32 (i8*, ...) @__isoc99_scanf(i8* getelementptr inbounds ([3 x i8], [3 x i8]* @.str, i64 0, i64 0), i32* nonnull %12)
  %14 = add nuw nsw i64 %11, 1
  %15 = load i32, i32* %1, align 4, !tbaa !5
  %16 = sext i32 %15 to i64
  %17 = icmp slt i64 %14, %16
  br i1 %17, label %10, label %18, !llvm.loop !9

18:                                               ; preds = %10
  %19 = getelementptr inbounds [100 x i32], [100 x i32]* %3, i64 0, i64 0
  store i32 1, i32* %19, align 16, !tbaa !5
  %20 = getelementptr inbounds [100 x i32], [100 x i32]* %3, i64 0, i64 1
  store i32 2, i32* %20, align 4, !tbaa !5
  %21 = icmp sgt i32 %15, 0
  br i1 %21, label %22, label %83

22:                                               ; preds = %18, %76
  %23 = phi i64 [ %79, %76 ], [ 0, %18 ]
  %24 = getelementptr inbounds [100 x i32], [100 x i32]* %2, i64 0, i64 %23
  %25 = load i32, i32* %24, align 4, !tbaa !5
  %26 = icmp slt i32 %25, 1
  br i1 %26, label %76, label %27

27:                                               ; preds = %22
  %28 = zext i32 %25 to i64
  %29 = and i64 %28, 1
  %30 = icmp eq i32 %25, 1
  br i1 %30, label %59, label %31

31:                                               ; preds = %27
  %32 = and i64 %28, 4294967294
  br label %33

33:                                               ; preds = %33, %31
  %34 = phi i32 [ 2, %31 ], [ %50, %33 ]
  %35 = phi i64 [ 1, %31 ], [ %51, %33 ]
  %36 = phi double [ 0.000000e+00, %31 ], [ %56, %33 ]
  %37 = phi i64 [ %32, %31 ], [ %57, %33 ]
  %38 = add nsw i64 %35, -1
  %39 = getelementptr inbounds [100 x i32], [100 x i32]* %3, i64 0, i64 %38
  %40 = load i32, i32* %39, align 4, !tbaa !5
  %41 = add nsw i32 %40, %34
  %42 = add nuw nsw i64 %35, 1
  %43 = getelementptr inbounds [100 x i32], [100 x i32]* %3, i64 0, i64 %42
  store i32 %41, i32* %43, align 4, !tbaa !5
  %44 = sitofp i32 %34 to double
  %45 = sitofp i32 %40 to double
  %46 = fdiv double %44, %45
  %47 = fadd double %36, %46
  %48 = getelementptr inbounds [100 x i32], [100 x i32]* %3, i64 0, i64 %35
  %49 = load i32, i32* %48, align 4, !tbaa !5
  %50 = add nsw i32 %49, %41
  %51 = add nuw nsw i64 %35, 2
  %52 = getelementptr inbounds [100 x i32], [100 x i32]* %3, i64 0, i64 %51
  store i32 %50, i32* %52, align 4, !tbaa !5
  %53 = sitofp i32 %41 to double
  %54 = sitofp i32 %49 to double
  %55 = fdiv double %53, %54
  %56 = fadd double %47, %55
  %57 = add i64 %37, -2
  %58 = icmp eq i64 %57, 0
  br i1 %58, label %59, label %33, !llvm.loop !11

59:                                               ; preds = %33, %27
  %60 = phi double [ undef, %27 ], [ %56, %33 ]
  %61 = phi i32 [ 2, %27 ], [ %50, %33 ]
  %62 = phi i64 [ 1, %27 ], [ %51, %33 ]
  %63 = phi double [ 0.000000e+00, %27 ], [ %56, %33 ]
  %64 = icmp eq i64 %29, 0
  br i1 %64, label %76, label %65

65:                                               ; preds = %59
  %66 = add nsw i64 %62, -1
  %67 = getelementptr inbounds [100 x i32], [100 x i32]* %3, i64 0, i64 %66
  %68 = load i32, i32* %67, align 4, !tbaa !5
  %69 = add nsw i32 %68, %61
  %70 = add nuw nsw i64 %62, 1
  %71 = getelementptr inbounds [100 x i32], [100 x i32]* %3, i64 0, i64 %70
  store i32 %69, i32* %71, align 4, !tbaa !5
  %72 = sitofp i32 %61 to double
  %73 = sitofp i32 %68 to double
  %74 = fdiv double %72, %73
  %75 = fadd double %63, %74
  br label %76

76:                                               ; preds = %65, %59, %22
  %77 = phi double [ 0.000000e+00, %22 ], [ %60, %59 ], [ %75, %65 ]
  %78 = call i32 (i8*, ...) @printf(i8* nonnull dereferenceable(1) getelementptr inbounds ([7 x i8], [7 x i8]* @.str.1, i64 0, i64 0), double %77)
  %79 = add nuw nsw i64 %23, 1
  %80 = load i32, i32* %1, align 4, !tbaa !5
  %81 = sext i32 %80 to i64
  %82 = icmp slt i64 %79, %81
  br i1 %82, label %22, label %83, !llvm.loop !12

83:                                               ; preds = %76, %0, %18
  call void @llvm.lifetime.end.p0i8(i64 400, i8* nonnull %6) #3
  call void @llvm.lifetime.end.p0i8(i64 400, i8* nonnull %5) #3
  call void @llvm.lifetime.end.p0i8(i64 4, i8* nonnull %4) #3
  ret i32 0
}

; Function Attrs: argmemonly mustprogress nofree nosync nounwind willreturn
declare void @llvm.lifetime.start.p0i8(i64 immarg, i8* nocapture) #1

; Function Attrs: nofree nounwind
declare noundef i32 @__isoc99_scanf(i8* nocapture noundef readonly, ...) local_unnamed_addr #2

; Function Attrs: nofree nounwind
declare noundef i32 @printf(i8* nocapture noundef readonly, ...) local_unnamed_addr #2

; Function Attrs: argmemonly mustprogress nofree nosync nounwind willreturn
declare void @llvm.lifetime.end.p0i8(i64 immarg, i8* nocapture) #1


!llvm.module.flags = !{!0, !1, !2, !3}
!llvm.ident = !{!4}

!0 = !{i32 1, !"wchar_size", i32 4}
!1 = !{i32 7, !"PIC Level", i32 2}
!2 = !{i32 7, !"PIE Level", i32 2}
!3 = !{i32 7, !"uwtable", i32 1}
!4 = !{!"clang version 13.0.0"}
!5 = !{!6, !6, i64 0}
!6 = !{!"int", !7, i64 0}
!7 = !{!"omnipotent char", !8, i64 0}
!8 = !{!"Simple C/C++ TBAA"}
!9 = distinct !{!9, !10}
!10 = !{!"llvm.loop.mustprogress"}
!11 = distinct !{!11, !10}
!12 = distinct !{!12, !10}
